target datalayout = "e-m:e-p270:32:32-p271:32:32-p272:64:64-i64:64-i128:128-f80:128-n8:16:32:64-S128"
target triple = "x86_64-pc-linux-gnu"

%struct.Vec_Ptr_t_ = type { i32, i32, ptr }

@.str.14 = private unnamed_addr constant [48 x i8] c"Ver_FormulaReduction(): Unknown operation (%c)\0A\00", align 1

; Function Attrs: inlinehint nounwind uwtable
define internal ptr @Hop_NotCond(ptr noundef %0, i32 noundef %1) #2 {
  %3 = alloca ptr, align 8
  %4 = alloca i32, align 4
  store ptr %0, ptr %3, align 8, !tbaa !19
  store i32 %1, ptr %4, align 4, !tbaa !13
  %5 = load ptr, ptr %3, align 8, !tbaa !19
  %6 = ptrtoint ptr %5 to i64
  %7 = load i32, ptr %4, align 4, !tbaa !13
  %8 = sext i32 %7 to i64
  %9 = xor i64 %6, %8
  %10 = inttoptr i64 %9 to ptr
  ret ptr %10
}

; Function Attrs: inlinehint nounwind uwtable
define internal i32 @Vec_PtrSize(ptr noundef %0) #2 {
  %2 = alloca ptr, align 8
  store ptr %0, ptr %2, align 8, !tbaa !9
  %3 = load ptr, ptr %2, align 8, !tbaa !9
  %4 = getelementptr inbounds nuw %struct.Vec_Ptr_t_, ptr %3, i32 0, i32 1
  %5 = load i32, ptr %4, align 4, !tbaa !22
  ret i32 %5
}

; Function Attrs: inlinehint nounwind uwtable
define internal ptr @Vec_PtrEntry(ptr noundef %0, i32 noundef %1) #2 {
  %3 = alloca ptr, align 8
  %4 = alloca i32, align 4
  store ptr %0, ptr %3, align 8, !tbaa !9
  store i32 %1, ptr %4, align 4, !tbaa !13
  %5 = load ptr, ptr %3, align 8, !tbaa !9
  %6 = getelementptr inbounds nuw %struct.Vec_Ptr_t_, ptr %5, i32 0, i32 2
  %7 = load ptr, ptr %6, align 8, !tbaa !39
  %8 = load i32, ptr %4, align 4, !tbaa !13
  %9 = sext i32 %8 to i64
  %10 = getelementptr inbounds ptr, ptr %7, i64 %9
  %11 = load ptr, ptr %10, align 8, !tbaa !8
  ret ptr %11
}

; Function Attrs: inlinehint nounwind uwtable
define internal void @Vec_PtrClear(ptr noundef %0) #2 {
  %2 = alloca ptr, align 8
  store ptr %0, ptr %2, align 8, !tbaa !9
  %3 = load ptr, ptr %2, align 8, !tbaa !9
  %4 = getelementptr inbounds nuw %struct.Vec_Ptr_t_, ptr %3, i32 0, i32 1
  store i32 0, ptr %4, align 4, !tbaa !22
  ret void
}

; Function Attrs: nounwind uwtable
define ptr @Ver_FormulaReduction(ptr noundef %0, ptr noundef %1, ptr noundef %2, ptr noundef %3) #0 {
  %5 = alloca ptr, align 8
  %6 = alloca ptr, align 8
  %7 = alloca ptr, align 8
  %8 = alloca ptr, align 8
  %9 = alloca ptr, align 8
  %10 = alloca ptr, align 8
  %11 = alloca i32, align 4
  %12 = alloca i32, align 4
  %13 = alloca i8, align 1
  %14 = alloca i32, align 4
  store ptr %0, ptr %6, align 8, !tbaa !3
  store ptr %1, ptr %7, align 8, !tbaa !8
  store ptr %2, ptr %8, align 8, !tbaa !9
  store ptr %3, ptr %9, align 8, !tbaa !3
  call void @llvm.lifetime.start.p0(i64 8, ptr %10) #8
  store ptr null, ptr %10, align 8, !tbaa !19
  call void @llvm.lifetime.start.p0(i64 4, ptr %11) #8
  call void @llvm.lifetime.start.p0(i64 4, ptr %12) #8
  call void @llvm.lifetime.start.p0(i64 1, ptr %13) #8
  %15 = load ptr, ptr %6, align 8, !tbaa !3
  %16 = getelementptr inbounds nuw i8, ptr %15, i32 1
  store ptr %16, ptr %6, align 8, !tbaa !3
  %17 = load i8, ptr %15, align 1, !tbaa !15
  store i8 %17, ptr %13, align 1, !tbaa !15
  %18 = load i8, ptr %13, align 1, !tbaa !15
  %19 = sext i8 %18 to i32
  %20 = icmp eq i32 %19, 126
  %21 = zext i1 %20 to i32
  store i32 %21, ptr %12, align 4, !tbaa !13
  %22 = load i32, ptr %12, align 4, !tbaa !13
  %23 = icmp ne i32 %22, 0
  br i1 %23, label %24, label %28

24:                                               ; preds = %4
  %25 = load ptr, ptr %6, align 8, !tbaa !3
  %26 = getelementptr inbounds nuw i8, ptr %25, i32 1
  store ptr %26, ptr %6, align 8, !tbaa !3
  %27 = load i8, ptr %25, align 1, !tbaa !15
  store i8 %27, ptr %13, align 1, !tbaa !15
  br label %28

28:                                               ; preds = %24, %4
  %29 = load i8, ptr %13, align 1, !tbaa !15
  %30 = sext i8 %29 to i32
  %31 = icmp ne i32 %30, 38
  br i1 %31, label %32, label %45

32:                                               ; preds = %28
  %33 = load i8, ptr %13, align 1, !tbaa !15
  %34 = sext i8 %33 to i32
  %35 = icmp ne i32 %34, 124
  br i1 %35, label %36, label %45

36:                                               ; preds = %32
  %37 = load i8, ptr %13, align 1, !tbaa !15
  %38 = sext i8 %37 to i32
  %39 = icmp ne i32 %38, 94
  br i1 %39, label %40, label %45

40:                                               ; preds = %36
  %41 = load ptr, ptr %9, align 8, !tbaa !3
  %42 = load i8, ptr %13, align 1, !tbaa !15
  %43 = sext i8 %42 to i32
  %44 = call i32 (ptr, ptr, ...) @sprintf(ptr noundef %41, ptr noundef @.str.14, i32 noundef %43) #8
  store ptr null, ptr %5, align 8
  store i32 1, ptr %14, align 4
  br label %125

45:                                               ; preds = %36, %32, %28
  br label %46

46:                                               ; preds = %52, %45
  %47 = load ptr, ptr %6, align 8, !tbaa !3
  %48 = getelementptr inbounds nuw i8, ptr %47, i32 1
  store ptr %48, ptr %6, align 8, !tbaa !3
  %49 = load i8, ptr %47, align 1, !tbaa !15
  %50 = sext i8 %49 to i32
  %51 = icmp ne i32 %50, 123
  br i1 %51, label %52, label %53

52:                                               ; preds = %46
  br label %46, !llvm.loop !41

53:                                               ; preds = %46
  %54 = load ptr, ptr %8, align 8, !tbaa !9
  call void @Vec_PtrClear(ptr noundef %54)
  br label %55

55:                                               ; preds = %88, %53
  %56 = load ptr, ptr %6, align 8, !tbaa !3
  %57 = load i8, ptr %56, align 1, !tbaa !15
  %58 = sext i8 %57 to i32
  %59 = icmp ne i32 %58, 125
  br i1 %59, label %60, label %89

60:                                               ; preds = %55
  %61 = load ptr, ptr %6, align 8, !tbaa !3
  %62 = load ptr, ptr %8, align 8, !tbaa !9
  %63 = call i32 @Ver_FormulaParserFindVar(ptr noundef %61, ptr noundef %62)
  store i32 %63, ptr %11, align 4, !tbaa !13
  %64 = load ptr, ptr %8, align 8, !tbaa !9
  %65 = load i32, ptr %11, align 4, !tbaa !13
  %66 = mul nsw i32 2, %65
  %67 = call ptr @Vec_PtrEntry(ptr noundef %64, i32 noundef %66)
  %68 = ptrtoint ptr %67 to i64
  %69 = trunc i64 %68 to i32
  %70 = load ptr, ptr %6, align 8, !tbaa !3
  %71 = sext i32 %69 to i64
  %72 = getelementptr inbounds i8, ptr %70, i64 %71
  store ptr %72, ptr %6, align 8, !tbaa !3
  br label %73

73:                                               ; preds = %85, %60
  %74 = load ptr, ptr %6, align 8, !tbaa !3
  %75 = load i8, ptr %74, align 1, !tbaa !15
  %76 = sext i8 %75 to i32
  %77 = icmp eq i32 %76, 32
  br i1 %77, label %83, label %78

78:                                               ; preds = %73
  %79 = load ptr, ptr %6, align 8, !tbaa !3
  %80 = load i8, ptr %79, align 1, !tbaa !15
  %81 = sext i8 %80 to i32
  %82 = icmp eq i32 %81, 44
  br label %83

83:                                               ; preds = %78, %73
  %84 = phi i1 [ true, %73 ], [ %82, %78 ]
  br i1 %84, label %85, label %88

85:                                               ; preds = %83
  %86 = load ptr, ptr %6, align 8, !tbaa !3
  %87 = getelementptr inbounds nuw i8, ptr %86, i32 1
  store ptr %87, ptr %6, align 8, !tbaa !3
  br label %73, !llvm.loop !42

88:                                               ; preds = %83
  br label %55, !llvm.loop !43

89:                                               ; preds = %55
  %90 = load i8, ptr %13, align 1, !tbaa !15
  %91 = sext i8 %90 to i32
  %92 = icmp eq i32 %91, 38
  br i1 %92, label %93, label %99

93:                                               ; preds = %89
  %94 = load ptr, ptr %7, align 8, !tbaa !8
  %95 = load ptr, ptr %8, align 8, !tbaa !9
  %96 = call i32 @Vec_PtrSize(ptr noundef %95)
  %97 = sdiv i32 %96, 2
  %98 = call ptr @Hop_CreateAnd(ptr noundef %94, i32 noundef %97)
  store ptr %98, ptr %10, align 8, !tbaa !19
  br label %121

99:                                               ; preds = %89
  %100 = load i8, ptr %13, align 1, !tbaa !15
  %101 = sext i8 %100 to i32
  %102 = icmp eq i32 %101, 124
  br i1 %102, label %103, label %109

103:                                              ; preds = %99
  %104 = load ptr, ptr %7, align 8, !tbaa !8
  %105 = load ptr, ptr %8, align 8, !tbaa !9
  %106 = call i32 @Vec_PtrSize(ptr noundef %105)
  %107 = sdiv i32 %106, 2
  %108 = call ptr @Hop_CreateOr(ptr noundef %104, i32 noundef %107)
  store ptr %108, ptr %10, align 8, !tbaa !19
  br label %120

109:                                              ; preds = %99
  %110 = load i8, ptr %13, align 1, !tbaa !15
  %111 = sext i8 %110 to i32
  %112 = icmp eq i32 %111, 94
  br i1 %112, label %113, label %119

113:                                              ; preds = %109
  %114 = load ptr, ptr %7, align 8, !tbaa !8
  %115 = load ptr, ptr %8, align 8, !tbaa !9
  %116 = call i32 @Vec_PtrSize(ptr noundef %115)
  %117 = sdiv i32 %116, 2
  %118 = call ptr @Hop_CreateExor(ptr noundef %114, i32 noundef %117)
  store ptr %118, ptr %10, align 8, !tbaa !19
  br label %119

119:                                              ; preds = %113, %109
  br label %120

120:                                              ; preds = %119, %103
  br label %121

121:                                              ; preds = %120, %93
  %122 = load ptr, ptr %10, align 8, !tbaa !19
  %123 = load i32, ptr %12, align 4, !tbaa !13
  %124 = call ptr @Hop_NotCond(ptr noundef %122, i32 noundef %123)
  store ptr %124, ptr %5, align 8
  store i32 1, ptr %14, align 4
  br label %125

125:                                              ; preds = %121, %40
  call void @llvm.lifetime.end.p0(i64 1, ptr %13) #8
  call void @llvm.lifetime.end.p0(i64 4, ptr %12) #8
  call void @llvm.lifetime.end.p0(i64 4, ptr %11) #8
  call void @llvm.lifetime.end.p0(i64 8, ptr %10) #8
  %126 = load ptr, ptr %5, align 8
  ret ptr %126
}