; Function Attrs: nounwind uwtable
define ptr @Ver_FormulaReduction(ptr noundef %0, ptr noundef %1, ptr noundef captures(none) %2, ptr noundef writeonly captures(none) %3) local_unnamed_addr #0 {
  %5 = getelementptr inbounds nuw i8, ptr %0, i64 1
  %6 = load i8, ptr %0, align 1, !tbaa !19
  %7 = icmp eq i8 %6, 126
  br i1 %7, label %8, label %11

8:                                                ; preds = %4
  %9 = getelementptr inbounds nuw i8, ptr %0, i64 2
  %10 = load i8, ptr %5, align 1, !tbaa !19
  br label %11

11:                                               ; preds = %8, %4
  %.037 = phi ptr [ %9, %8 ], [ %5, %4 ]
  %.0 = phi i8 [ %10, %8 ], [ %6, %4 ]
  switch i8 %.0, label %12 [
    i8 124, label %.preheader.preheader
    i8 94, label %.preheader.preheader
    i8 38, label %.preheader.preheader
  ]

.preheader.preheader:                             ; preds = %11, %11, %11
  br label %.preheader

12:                                               ; preds = %11
  %13 = sext i8 %.0 to i32
  %14 = tail call i32 (ptr, ptr, ...) @sprintf(ptr noundef nonnull dereferenceable(1) %3, ptr noundef nonnull dereferenceable(1) @.str.14, i32 noundef %13) #11
  br label %45

.preheader:                                       ; preds = %.preheader.preheader, %.preheader
  %.1 = phi ptr [ %15, %.preheader ], [ %.037, %.preheader.preheader ]
  %15 = getelementptr inbounds nuw i8, ptr %.1, i64 1
  %16 = load i8, ptr %.1, align 1, !tbaa !19
  %.not = icmp eq i8 %16, 123
  br i1 %.not, label %17, label %.preheader, !llvm.loop !32

17:                                               ; preds = %.preheader
  %18 = getelementptr inbounds nuw i8, ptr %2, i64 4
  store i32 0, ptr %18, align 4, !tbaa !3
  %.pr = load i8, ptr %15, align 1, !tbaa !19
  %.not4247 = icmp eq i8 %.pr, 125
  br i1 %.not4247, label %._crit_edge, label %.lr.ph

.lr.ph:                                           ; preds = %17
  %19 = getelementptr i8, ptr %2, i64 8
  br label %.loopexit

.loopexit:                                        ; preds = %28, %.lr.ph
  %.248 = phi ptr [ %15, %.lr.ph ], [ %.3, %28 ]
  %20 = tail call fastcc i32 @Ver_FormulaParserFindVar(ptr noundef nonnull %.248, ptr noundef %2)
  %21 = shl nsw i32 %20, 1
  %.val45 = load ptr, ptr %19, align 8, !tbaa !25
  %22 = sext i32 %21 to i64
  %23 = getelementptr inbounds ptr, ptr %.val45, i64 %22
  %24 = load ptr, ptr %23, align 8, !tbaa !26
  %25 = ptrtoint ptr %24 to i64
  %sext = shl i64 %25, 32
  %26 = ashr exact i64 %sext, 32
  %27 = getelementptr inbounds i8, ptr %.248, i64 %26
  br label %28

28:                                               ; preds = %.critedge, %.loopexit
  %.3 = phi ptr [ %27, %.loopexit ], [ %30, %.critedge ]
  %29 = load i8, ptr %.3, align 1, !tbaa !19
  switch i8 %29, label %.loopexit [
    i8 32, label %.critedge
    i8 44, label %.critedge
    i8 125, label %._crit_edge
  ]

.critedge:                                        ; preds = %28, %28
  %30 = getelementptr inbounds nuw i8, ptr %.3, i64 1
  br label %28, !llvm.loop !33

._crit_edge:                                      ; preds = %28, %17
  switch i8 %.0, label %40 [
    i8 38, label %31
    i8 124, label %34
    i8 94, label %37
  ]

31:                                               ; preds = %._crit_edge
  %.val44 = load i32, ptr %18, align 4, !tbaa !3
  %32 = sdiv i32 %.val44, 2
  %33 = tail call ptr @Hop_CreateAnd(ptr noundef %1, i32 noundef %32) #11
  br label %40

34:                                               ; preds = %._crit_edge
  %.val43 = load i32, ptr %18, align 4, !tbaa !3
  %35 = sdiv i32 %.val43, 2
  %36 = tail call ptr @Hop_CreateOr(ptr noundef %1, i32 noundef %35) #11
  br label %40

37:                                               ; preds = %._crit_edge
  %.val = load i32, ptr %18, align 4, !tbaa !3
  %38 = sdiv i32 %.val, 2
  %39 = tail call ptr @Hop_CreateExor(ptr noundef %1, i32 noundef %38) #11
  br label %40

40:                                               ; preds = %._crit_edge, %34, %37, %31
  %.038 = phi ptr [ %33, %31 ], [ %36, %34 ], [ %39, %37 ], [ null, %._crit_edge ]
  %41 = ptrtoint ptr %.038 to i64
  %42 = zext i1 %7 to i64
  %43 = xor i64 %41, %42
  %44 = inttoptr i64 %43 to ptr
  br label %45

45:                                               ; preds = %40, %12
  %.036 = phi ptr [ null, %12 ], [ %44, %40 ]
  ret ptr %.036
}